; Function Attrs: mustprogress uwtable
define void @_ZN7rocksdb17GetAllKeyVersionsEPNS_2DBENS_5SliceES2_mPSt6vectorINS_10KeyVersionESaIS4_EE(ptr dead_on_unwind noalias writable sret(%"class.rocksdb::Status") align 8 %0, ptr noundef %1, ptr %2, i64 %3, ptr %4, i64 %5, i64 noundef %6, ptr noundef %7) local_unnamed_addr #5 {
  %9 = alloca %"class.rocksdb::Slice", align 8
  %10 = alloca %"class.rocksdb::Slice", align 8
  %11 = alloca %"class.rocksdb::Slice", align 8
  %12 = icmp eq ptr %1, null
  br i1 %12, label %13, label %16

13:                                               ; preds = %8
  call void @llvm.lifetime.start.p0(i64 16, ptr nonnull %9) #25
  store ptr @.str.68, ptr %9, align 8, !tbaa !38
  %14 = getelementptr inbounds nuw i8, ptr %9, i64 8
  store i64 18, ptr %14, align 8, !tbaa !40
  call void @llvm.lifetime.start.p0(i64 16, ptr nonnull %10) #25
  store ptr @.str, ptr %10, align 8, !tbaa !38
  %15 = getelementptr inbounds nuw i8, ptr %10, i64 8
  store i64 0, ptr %15, align 8, !tbaa !40
  call void @_ZN7rocksdb6StatusC2ENS0_4CodeENS0_7SubCodeERKNS_5SliceES5_NS0_8SeverityE(ptr noundef nonnull align 8 dereferenceable(16) %0, i8 noundef zeroext 4, i8 noundef zeroext 0, ptr noundef nonnull align 8 dereferenceable(16) %9, ptr noundef nonnull align 8 dereferenceable(16) %10, i8 noundef zeroext 0)
  call void @llvm.lifetime.end.p0(i64 16, ptr nonnull %10) #25
  call void @llvm.lifetime.end.p0(i64 16, ptr nonnull %9) #25
  br label %21

16:                                               ; preds = %8
  %17 = load ptr, ptr %1, align 8, !tbaa !41
  %18 = getelementptr inbounds nuw i8, ptr %17, i64 1080
  %19 = load ptr, ptr %18, align 8
  %20 = tail call noundef ptr %19(ptr noundef nonnull align 8 dereferenceable(8) %1)
  store ptr %4, ptr %11, align 8, !tbaa !43
  %.sroa.25.0..sroa_idx = getelementptr inbounds nuw i8, ptr %11, i64 8
  store i64 %5, ptr %.sroa.25.0..sroa_idx, align 8, !tbaa !44
  tail call void @_ZN7rocksdb17GetAllKeyVersionsEPNS_2DBEPNS_18ColumnFamilyHandleENS_5SliceES4_mPSt6vectorINS_10KeyVersionESaIS6_EE(ptr dead_on_unwind writable sret(%"class.rocksdb::Status") align 8 %0, ptr noundef nonnull %1, ptr noundef %20, ptr %2, i64 %3, ptr noundef nonnull byval(%"class.rocksdb::Slice") align 8 %11, i64 noundef %6, ptr noundef %7)
  br label %21

21:                                               ; preds = %16, %13
  ret void
}